; ModuleID = '5/1216.c'
source_filename = "5/1216.c"
target datalayout = "e-m:e-p270:32:32-p271:32:32-p272:64:64-i64:64-f80:128-n8:16:32:64-S128"
target triple = "x86_64-pc-linux-gnu"

@.str = private unnamed_addr constant [4 x i8] c"%lf\00", align 1
@.str.1 = private unnamed_addr constant [5 x i8] c"%s%s\00", align 1
@.str.2 = private unnamed_addr constant [7 x i8] c"error\0A\00", align 1
@.str.3 = private unnamed_addr constant [5 x i8] c"yes\0A\00", align 1
@.str.4 = private unnamed_addr constant [4 x i8] c"no\0A\00", align 1

; Function Attrs: noinline nounwind uwtable
define dso_local i32 @main() #0 {
  %1 = alloca i32, align 4
  %2 = alloca double, align 8
  %3 = alloca double, align 8
  %4 = alloca i32, align 4
  %5 = alloca i32, align 4
  %6 = alloca i32, align 4
  %7 = alloca i32, align 4
  %8 = alloca i32, align 4
  %9 = alloca i32, align 4
  %10 = alloca i32, align 4
  %11 = alloca i32, align 4
  %12 = alloca [500 x i8], align 16
  %13 = alloca [500 x i8], align 16
  store i32 0, i32* %1, align 4
  store i32 0, i32* %11, align 4
  %14 = call i32 (i8*, ...) @__isoc99_scanf(i8* getelementptr inbounds ([4 x i8], [4 x i8]* @.str, i64 0, i64 0), double* %2)
  %15 = getelementptr inbounds [500 x i8], [500 x i8]* %12, i64 0, i64 0
  %16 = getelementptr inbounds [500 x i8], [500 x i8]* %13, i64 0, i64 0
  %17 = call i32 (i8*, ...) @__isoc99_scanf(i8* getelementptr inbounds ([5 x i8], [5 x i8]* @.str.1, i64 0, i64 0), i8* %15, i8* %16)
  %18 = getelementptr inbounds [500 x i8], [500 x i8]* %12, i64 0, i64 0
  %19 = call i64 @strlen(i8* %18) #3
  %20 = trunc i64 %19 to i32
  store i32 %20, i32* %4, align 4
  %21 = getelementptr inbounds [500 x i8], [500 x i8]* %13, i64 0, i64 0
  %22 = call i64 @strlen(i8* %21) #3
  %23 = trunc i64 %22 to i32
  store i32 %23, i32* %5, align 4
  store i32 0, i32* %6, align 4
  br label %24

24:                                               ; preds = %59, %0
  %25 = load i32, i32* %6, align 4
  %26 = load i32, i32* %4, align 4
  %27 = icmp slt i32 %25, %26
  br i1 %27, label %28, label %62

28:                                               ; preds = %24
  %29 = load i32, i32* %6, align 4
  %30 = sext i32 %29 to i64
  %31 = getelementptr inbounds [500 x i8], [500 x i8]* %12, i64 0, i64 %30
  %32 = load i8, i8* %31, align 1
  %33 = sext i8 %32 to i32
  %34 = icmp eq i32 %33, 65
  br i1 %34, label %56, label %35

35:                                               ; preds = %28
  %36 = load i32, i32* %6, align 4
  %37 = sext i32 %36 to i64
  %38 = getelementptr inbounds [500 x i8], [500 x i8]* %12, i64 0, i64 %37
  %39 = load i8, i8* %38, align 1
  %40 = sext i8 %39 to i32
  %41 = icmp eq i32 %40, 84
  br i1 %41, label %56, label %42

42:                                               ; preds = %35
  %43 = load i32, i32* %6, align 4
  %44 = sext i32 %43 to i64
  %45 = getelementptr inbounds [500 x i8], [500 x i8]* %12, i64 0, i64 %44
  %46 = load i8, i8* %45, align 1
  %47 = sext i8 %46 to i32
  %48 = icmp eq i32 %47, 71
  br i1 %48, label %56, label %49

49:                                               ; preds = %42
  %50 = load i32, i32* %6, align 4
  %51 = sext i32 %50 to i64
  %52 = getelementptr inbounds [500 x i8], [500 x i8]* %12, i64 0, i64 %51
  %53 = load i8, i8* %52, align 1
  %54 = sext i8 %53 to i32
  %55 = icmp eq i32 %54, 67
  br i1 %55, label %56, label %57

56:                                               ; preds = %49, %42, %35, %28
  store i32 0, i32* %8, align 4
  br label %58

57:                                               ; preds = %49
  store i32 1, i32* %8, align 4
  br label %62

58:                                               ; preds = %56
  br label %59

59:                                               ; preds = %58
  %60 = load i32, i32* %6, align 4
  %61 = add nsw i32 %60, 1
  store i32 %61, i32* %6, align 4
  br label %24

62:                                               ; preds = %57, %24
  store i32 0, i32* %7, align 4
  br label %63

63:                                               ; preds = %98, %62
  %64 = load i32, i32* %7, align 4
  %65 = load i32, i32* %5, align 4
  %66 = icmp slt i32 %64, %65
  br i1 %66, label %67, label %101

67:                                               ; preds = %63
  %68 = load i32, i32* %7, align 4
  %69 = sext i32 %68 to i64
  %70 = getelementptr inbounds [500 x i8], [500 x i8]* %13, i64 0, i64 %69
  %71 = load i8, i8* %70, align 1
  %72 = sext i8 %71 to i32
  %73 = icmp eq i32 %72, 65
  br i1 %73, label %95, label %74

74:                                               ; preds = %67
  %75 = load i32, i32* %7, align 4
  %76 = sext i32 %75 to i64
  %77 = getelementptr inbounds [500 x i8], [500 x i8]* %13, i64 0, i64 %76
  %78 = load i8, i8* %77, align 1
  %79 = sext i8 %78 to i32
  %80 = icmp eq i32 %79, 84
  br i1 %80, label %95, label %81

81:                                               ; preds = %74
  %82 = load i32, i32* %7, align 4
  %83 = sext i32 %82 to i64
  %84 = getelementptr inbounds [500 x i8], [500 x i8]* %13, i64 0, i64 %83
  %85 = load i8, i8* %84, align 1
  %86 = sext i8 %85 to i32
  %87 = icmp eq i32 %86, 71
  br i1 %87, label %95, label %88

88:                                               ; preds = %81
  %89 = load i32, i32* %7, align 4
  %90 = sext i32 %89 to i64
  %91 = getelementptr inbounds [500 x i8], [500 x i8]* %13, i64 0, i64 %90
  %92 = load i8, i8* %91, align 1
  %93 = sext i8 %92 to i32
  %94 = icmp eq i32 %93, 67
  br i1 %94, label %95, label %96

95:                                               ; preds = %88, %81, %74, %67
  store i32 0, i32* %9, align 4
  br label %97

96:                                               ; preds = %88
  store i32 1, i32* %9, align 4
  br label %101

97:                                               ; preds = %95
  br label %98

98:                                               ; preds = %97
  %99 = load i32, i32* %7, align 4
  %100 = add nsw i32 %99, 1
  store i32 %100, i32* %7, align 4
  br label %63

101:                                              ; preds = %96, %63
  %102 = load i32, i32* %4, align 4
  %103 = load i32, i32* %5, align 4
  %104 = icmp ne i32 %102, %103
  br i1 %104, label %111, label %105

105:                                              ; preds = %101
  %106 = load i32, i32* %9, align 4
  %107 = icmp eq i32 %106, 1
  br i1 %107, label %111, label %108

108:                                              ; preds = %105
  %109 = load i32, i32* %8, align 4
  %110 = icmp eq i32 %109, 1
  br i1 %110, label %111, label %113

111:                                              ; preds = %108, %105, %101
  %112 = call i32 (i8*, ...) @printf(i8* getelementptr inbounds ([7 x i8], [7 x i8]* @.str.2, i64 0, i64 0))
  br label %152

113:                                              ; preds = %108
  store i32 0, i32* %10, align 4
  br label %114

114:                                              ; preds = %134, %113
  %115 = load i32, i32* %10, align 4
  %116 = load i32, i32* %4, align 4
  %117 = icmp slt i32 %115, %116
  br i1 %117, label %118, label %137

118:                                              ; preds = %114
  %119 = load i32, i32* %10, align 4
  %120 = sext i32 %119 to i64
  %121 = getelementptr inbounds [500 x i8], [500 x i8]* %12, i64 0, i64 %120
  %122 = load i8, i8* %121, align 1
  %123 = sext i8 %122 to i32
  %124 = load i32, i32* %10, align 4
  %125 = sext i32 %124 to i64
  %126 = getelementptr inbounds [500 x i8], [500 x i8]* %13, i64 0, i64 %125
  %127 = load i8, i8* %126, align 1
  %128 = sext i8 %127 to i32
  %129 = icmp eq i32 %123, %128
  br i1 %129, label %130, label %133

130:                                              ; preds = %118
  %131 = load i32, i32* %11, align 4
  %132 = add nsw i32 %131, 1
  store i32 %132, i32* %11, align 4
  br label %133

133:                                              ; preds = %130, %118
  br label %134

134:                                              ; preds = %133
  %135 = load i32, i32* %10, align 4
  %136 = add nsw i32 %135, 1
  store i32 %136, i32* %10, align 4
  br label %114

137:                                              ; preds = %114
  %138 = load i32, i32* %11, align 4
  %139 = sitofp i32 %138 to double
  %140 = fmul double %139, 1.000000e+00
  %141 = load i32, i32* %4, align 4
  %142 = sitofp i32 %141 to double
  %143 = fdiv double %140, %142
  store double %143, double* %3, align 8
  %144 = load double, double* %3, align 8
  %145 = load double, double* %2, align 8
  %146 = fcmp ogt double %144, %145
  br i1 %146, label %147, label %149

147:                                              ; preds = %137
  %148 = call i32 (i8*, ...) @printf(i8* getelementptr inbounds ([5 x i8], [5 x i8]* @.str.3, i64 0, i64 0))
  br label %151

149:                                              ; preds = %137
  %150 = call i32 (i8*, ...) @printf(i8* getelementptr inbounds ([4 x i8], [4 x i8]* @.str.4, i64 0, i64 0))
  br label %151

151:                                              ; preds = %149, %147
  br label %152

152:                                              ; preds = %151, %111
  ret i32 0
}

declare dso_local i32 @__isoc99_scanf(i8*, ...) #1

; Function Attrs: nounwind readonly
declare dso_local i64 @strlen(i8*) #2

declare dso_local i32 @printf(i8*, ...) #1


!llvm.module.flags = !{!0}
!llvm.ident = !{!1}

!0 = !{i32 1, !"wchar_size", i32 4}
!1 = !{!"clang version 10.0.0-4ubuntu1 "}
